; Function Attrs: nounwind uwtable
define dso_local void @ExecInitResultRelation(ptr noundef captures(none) %0, ptr noundef %1, i32 noundef %2) local_unnamed_addr #0 {
  %4 = getelementptr inbounds nuw i8, ptr %0, i64 40
  %5 = load ptr, ptr %4, align 8
  %6 = add i32 %2, -1
  %7 = zext i32 %6 to i64
  %8 = getelementptr inbounds nuw ptr, ptr %5, i64 %7
  %9 = load ptr, ptr %8, align 8
  %10 = icmp eq ptr %9, null
  br i1 %10, label %11, label %ExecGetRangeTableRelation.exit

11:                                               ; preds = %3
  %12 = getelementptr i8, ptr %0, i64 24
  %.val.i = load ptr, ptr %12, align 8
  %13 = getelementptr i8, ptr %.val.i, i64 16
  %.val.val.i = load ptr, ptr %13, align 8
  %14 = sext i32 %6 to i64
  %15 = getelementptr inbounds %union.ListCell, ptr %.val.val.i, i64 %14
  %16 = load ptr, ptr %15, align 8
  %17 = load i32, ptr @ParallelWorkerNumber, align 4
  %18 = icmp sgt i32 %17, -1
  %19 = getelementptr inbounds nuw i8, ptr %16, i64 28
  %20 = load i32, ptr %19, align 4
  br i1 %18, label %21, label %24

21:                                               ; preds = %11
  %22 = getelementptr inbounds nuw i8, ptr %16, i64 36
  %23 = load i32, ptr %22, align 4
  br label %24

24:                                               ; preds = %21, %11
  %.sink.i = phi i32 [ %23, %21 ], [ 0, %11 ]
  %25 = tail call ptr @table_open(i32 noundef %20, i32 noundef %.sink.i) #12
  %26 = load ptr, ptr %4, align 8
  %27 = getelementptr inbounds nuw ptr, ptr %26, i64 %7
  store ptr %25, ptr %27, align 8
  br label %ExecGetRangeTableRelation.exit

ExecGetRangeTableRelation.exit:                   ; preds = %3, %24
  %.0.i = phi ptr [ %25, %24 ], [ %9, %3 ]
  %28 = getelementptr inbounds nuw i8, ptr %0, i64 228
  %29 = load i32, ptr %28, align 4
  tail call void @InitResultRelInfo(ptr noundef %1, ptr noundef %.0.i, i32 noundef %2, ptr noundef null, i32 noundef %29) #12
  %30 = getelementptr inbounds nuw i8, ptr %0, i64 128
  %31 = load ptr, ptr %30, align 8
  %32 = icmp eq ptr %31, null
  br i1 %32, label %33, label %39

33:                                               ; preds = %ExecGetRangeTableRelation.exit
  %34 = getelementptr inbounds nuw i8, ptr %0, i64 32
  %35 = load i32, ptr %34, align 8
  %36 = zext i32 %35 to i64
  %37 = shl nuw nsw i64 %36, 3
  %38 = tail call ptr @palloc0(i64 noundef %37) #12
  store ptr %38, ptr %30, align 8
  br label %39

39:                                               ; preds = %33, %ExecGetRangeTableRelation.exit
  %40 = phi ptr [ %38, %33 ], [ %31, %ExecGetRangeTableRelation.exit ]
  %41 = getelementptr inbounds nuw ptr, ptr %40, i64 %7
  store ptr %1, ptr %41, align 8
  %42 = getelementptr inbounds nuw i8, ptr %0, i64 136
  %43 = load ptr, ptr %42, align 8
  %44 = tail call ptr @lappend(ptr noundef %43, ptr noundef %1) #12
  store ptr %44, ptr %42, align 8
  ret void
}